; Function Attrs: nofree norecurse nosync nounwind memory(read, argmem: readwrite, inaccessiblemem: none) uwtable
define hidden zeroext i8 @luaH_getint(ptr noundef readonly captures(none) %0, i64 noundef %1, ptr noundef writeonly captures(none) %2) local_unnamed_addr #6 {
  %4 = getelementptr inbounds nuw i8, ptr %0, i64 12
  %5 = load i32, ptr %4, align 4, !tbaa !4
  %6 = add i64 %1, -1
  %7 = zext i32 %5 to i64
  %8 = icmp uge i64 %6, %7
  %9 = trunc i64 %1 to i32
  %.not16 = icmp eq i32 %9, 0
  %.not = or i1 %.not16, %8
  br i1 %.not, label %26, label %10

10:                                               ; preds = %3
  %11 = getelementptr inbounds nuw i8, ptr %0, i64 16
  %12 = load ptr, ptr %11, align 8, !tbaa !19
  %13 = getelementptr inbounds nuw i8, ptr %12, i64 4
  %14 = add nuw nsw i64 %1, 4294967295
  %15 = and i64 %14, 4294967295
  %16 = getelementptr inbounds nuw i8, ptr %13, i64 %15
  %17 = load i8, ptr %16, align 1, !tbaa !16
  %18 = and i8 %17, 15
  %19 = icmp eq i8 %18, 0
  br i1 %19, label %66, label %20

20:                                               ; preds = %10
  %21 = getelementptr inbounds nuw i8, ptr %2, i64 8
  store i8 %17, ptr %21, align 8, !tbaa !14
  %22 = getelementptr inbounds i8, ptr %12, i64 -8
  %23 = sub nsw i64 0, %15
  %24 = getelementptr inbounds %union.Value, ptr %22, i64 %23
  %25 = load i64, ptr %24, align 8, !tbaa !16
  store i64 %25, ptr %2, align 8, !tbaa !16
  br label %66

26:                                               ; preds = %3
  %27 = icmp ult i64 %1, 2147483648
  %28 = getelementptr inbounds nuw i8, ptr %0, i64 24
  %29 = load ptr, ptr %28, align 8, !tbaa !18
  %30 = getelementptr inbounds nuw i8, ptr %0, i64 11
  %31 = load i8, ptr %30, align 1, !tbaa !20
  %32 = zext nneg i8 %31 to i32
  %notmask9.i.i = shl nsw i32 -1, %32
  %33 = xor i32 %notmask9.i.i, -1
  %34 = or i32 %33, 1
  br i1 %27, label %35, label %38

35:                                               ; preds = %26
  %36 = urem i32 %9, %34
  %37 = zext nneg i32 %36 to i64
  br label %hashint.exit.i

38:                                               ; preds = %26
  %39 = zext nneg i32 %34 to i64
  %40 = urem i64 %1, %39
  br label %hashint.exit.i

hashint.exit.i:                                   ; preds = %38, %35
  %.sink.i.i = phi i64 [ %40, %38 ], [ %37, %35 ]
  %41 = getelementptr inbounds nuw %union.Node, ptr %29, i64 %.sink.i.i
  br label %42

42:                                               ; preds = %50, %hashint.exit.i
  %.012.i = phi ptr [ %41, %hashint.exit.i ], [ %55, %50 ]
  %43 = getelementptr inbounds nuw i8, ptr %.012.i, i64 9
  %44 = load i8, ptr %43, align 1, !tbaa !16
  %45 = icmp eq i8 %44, 3
  br i1 %45, label %46, label %50

46:                                               ; preds = %42
  %47 = getelementptr inbounds nuw i8, ptr %.012.i, i64 16
  %48 = load i64, ptr %47, align 8, !tbaa !16
  %49 = icmp eq i64 %48, %1
  br i1 %49, label %getintfromhash.exit, label %50

50:                                               ; preds = %46, %42
  %51 = getelementptr inbounds nuw i8, ptr %.012.i, i64 12
  %52 = load i32, ptr %51, align 4, !tbaa !16
  %53 = icmp eq i32 %52, 0
  %54 = sext i32 %52 to i64
  %55 = getelementptr inbounds %union.Node, ptr %.012.i, i64 %54
  br i1 %53, label %getintfromhash.exit, label %42

getintfromhash.exit:                              ; preds = %46, %50
  %.0.i = phi ptr [ %.012.i, %46 ], [ @absentkey, %50 ]
  %56 = getelementptr inbounds nuw i8, ptr %.0.i, i64 8
  %57 = load i8, ptr %56, align 8, !tbaa !14
  %58 = and i8 %57, 15
  %59 = icmp eq i8 %58, 0
  br i1 %59, label %finishnodeget.exit, label %60

60:                                               ; preds = %getintfromhash.exit
  %61 = load i64, ptr %.0.i, align 8, !tbaa !16
  store i64 %61, ptr %2, align 8, !tbaa !16
  %62 = load i8, ptr %56, align 8, !tbaa !14
  %63 = getelementptr inbounds nuw i8, ptr %2, i64 8
  store i8 %62, ptr %63, align 8, !tbaa !14
  br label %finishnodeget.exit

finishnodeget.exit:                               ; preds = %getintfromhash.exit, %60
  %64 = phi i8 [ %62, %60 ], [ %57, %getintfromhash.exit ]
  %65 = and i8 %64, 63
  br label %66

66:                                               ; preds = %10, %20, %finishnodeget.exit
  %.0 = phi i8 [ %65, %finishnodeget.exit ], [ %17, %20 ], [ %17, %10 ]
  ret i8 %.0
}